; Function Attrs: mustprogress uwtable
define dso_local void @_ZN17cmOutputConverter18SetRelativePathTopERKNSt7__cxx1112basic_stringIcSt11char_traitsIcESaIcEEES7_(ptr noundef nonnull align 8 dereferenceable(108) %0, ptr noundef nonnull align 8 dereferenceable(32) %1, ptr noundef nonnull align 8 dereferenceable(32) %2) local_unnamed_addr #3 align 2 {
  %4 = getelementptr inbounds i8, ptr %0, i64 40
  %5 = tail call noundef nonnull align 8 dereferenceable(32) ptr @_ZNSt7__cxx1112basic_stringIcSt11char_traitsIcESaIcEEaSERKS4_(ptr noundef nonnull align 8 dereferenceable(32) %4, ptr noundef nonnull align 8 dereferenceable(32) %1)
  %6 = getelementptr inbounds i8, ptr %0, i64 72
  %7 = tail call noundef nonnull align 8 dereferenceable(32) ptr @_ZNSt7__cxx1112basic_stringIcSt11char_traitsIcESaIcEEaSERKS4_(ptr noundef nonnull align 8 dereferenceable(32) %6, ptr noundef nonnull align 8 dereferenceable(32) %2)
  %8 = tail call noundef zeroext i1 @_ZN5cmsys11SystemTools11ComparePathERKNSt7__cxx1112basic_stringIcSt11char_traitsIcESaIcEEES8_(ptr noundef nonnull align 8 dereferenceable(32) %4, ptr noundef nonnull align 8 dereferenceable(32) %6)
  br i1 %8, label %9, label %11

9:                                                ; preds = %3
  %10 = getelementptr inbounds i8, ptr %0, i64 104
  store i32 3, ptr %10, align 8
  br label %_ZN17cmOutputConverter30ComputeRelativePathTopRelationEv.exit

11:                                               ; preds = %3
  %12 = tail call noundef zeroext i1 @_ZN5cmsys11SystemTools14IsSubDirectoryERKNSt7__cxx1112basic_stringIcSt11char_traitsIcESaIcEEES8_(ptr noundef nonnull align 8 dereferenceable(32) %6, ptr noundef nonnull align 8 dereferenceable(32) %4)
  br i1 %12, label %13, label %15

13:                                               ; preds = %11
  %14 = getelementptr inbounds i8, ptr %0, i64 104
  store i32 1, ptr %14, align 8
  br label %_ZN17cmOutputConverter30ComputeRelativePathTopRelationEv.exit

15:                                               ; preds = %11
  %16 = tail call noundef zeroext i1 @_ZN5cmsys11SystemTools14IsSubDirectoryERKNSt7__cxx1112basic_stringIcSt11char_traitsIcESaIcEEES8_(ptr noundef nonnull align 8 dereferenceable(32) %4, ptr noundef nonnull align 8 dereferenceable(32) %6)
  %17 = getelementptr inbounds i8, ptr %0, i64 104
  br i1 %16, label %18, label %19

18:                                               ; preds = %15
  store i32 2, ptr %17, align 8
  br label %_ZN17cmOutputConverter30ComputeRelativePathTopRelationEv.exit

19:                                               ; preds = %15
  store i32 0, ptr %17, align 8
  br label %_ZN17cmOutputConverter30ComputeRelativePathTopRelationEv.exit

_ZN17cmOutputConverter30ComputeRelativePathTopRelationEv.exit: ; preds = %9, %13, %18, %19
  ret void
}